target datalayout = "e-m:e-p270:32:32-p271:32:32-p272:64:64-i64:64-i128:128-f80:128-n8:16:32:64-S128"
target triple = "x86_64-pc-linux-gnu"

%struct.evp_rand_ctx_st = type { ptr, ptr, ptr, %struct.CRYPTO_REF_COUNT, ptr }
%struct.CRYPTO_REF_COUNT = type { i32 }
%struct.evp_rand_st = type { ptr, i32, ptr, ptr, %struct.CRYPTO_REF_COUNT, ptr, ptr, ptr, ptr, ptr, ptr, ptr, ptr, ptr, ptr, ptr, ptr, ptr, ptr, ptr, ptr, ptr, ptr, ptr, ptr }

@.str = private unnamed_addr constant [33 x i8] c"../openssl/crypto/evp/evp_rand.c\00", align 1

; Function Attrs: nounwind uwtable
define internal void @evp_rand_free(ptr noundef %0) #0 {
  %2 = alloca ptr, align 8
  %3 = alloca ptr, align 8
  %4 = alloca i32, align 4
  %5 = alloca i32, align 4
  store ptr %0, ptr %2, align 8, !tbaa !58
  call void @llvm.lifetime.start.p0(i64 8, ptr %3) #6
  %6 = load ptr, ptr %2, align 8, !tbaa !58
  store ptr %6, ptr %3, align 8, !tbaa !29
  call void @llvm.lifetime.start.p0(i64 4, ptr %4) #6
  store i32 0, ptr %4, align 4, !tbaa !22
  %7 = load ptr, ptr %3, align 8, !tbaa !29
  %8 = icmp eq ptr %7, null
  br i1 %8, label %9, label %10

9:                                                ; preds = %1
  store i32 1, ptr %5, align 4
  br label %27

10:                                               ; preds = %1
  %11 = load ptr, ptr %3, align 8, !tbaa !29
  %12 = getelementptr inbounds nuw %struct.evp_rand_st, ptr %11, i32 0, i32 4
  %13 = call i32 @CRYPTO_DOWN_REF(ptr noundef %12, ptr noundef %4)
  %14 = load i32, ptr %4, align 4, !tbaa !22
  %15 = icmp sgt i32 %14, 0
  br i1 %15, label %16, label %17

16:                                               ; preds = %10
  store i32 1, ptr %5, align 4
  br label %27

17:                                               ; preds = %10
  %18 = load ptr, ptr %3, align 8, !tbaa !29
  %19 = getelementptr inbounds nuw %struct.evp_rand_st, ptr %18, i32 0, i32 2
  %20 = load ptr, ptr %19, align 8, !tbaa !31
  call void @CRYPTO_free(ptr noundef %20, ptr noundef @.str, i32 noundef 73)
  %21 = load ptr, ptr %3, align 8, !tbaa !29
  %22 = getelementptr inbounds nuw %struct.evp_rand_st, ptr %21, i32 0, i32 0
  %23 = load ptr, ptr %22, align 8, !tbaa !57
  call void @ossl_provider_free(ptr noundef %23)
  %24 = load ptr, ptr %3, align 8, !tbaa !29
  %25 = getelementptr inbounds nuw %struct.evp_rand_st, ptr %24, i32 0, i32 4
  call void @CRYPTO_FREE_REF(ptr noundef %25)
  %26 = load ptr, ptr %3, align 8, !tbaa !29
  call void @CRYPTO_free(ptr noundef %26, ptr noundef @.str, i32 noundef 76)
  store i32 0, ptr %5, align 4
  br label %27

27:                                               ; preds = %17, %16, %9
  call void @llvm.lifetime.end.p0(i64 4, ptr %4) #6
  call void @llvm.lifetime.end.p0(i64 8, ptr %3) #6
  %28 = load i32, ptr %5, align 4
  switch i32 %28, label %30 [
    i32 0, label %29
    i32 1, label %29
  ]

29:                                               ; preds = %27, %27
  ret void

30:                                               ; preds = %27
  unreachable
}

; Function Attrs: inlinehint nounwind uwtable
define internal void @CRYPTO_FREE_REF(ptr noundef %0) #3 {
  %2 = alloca ptr, align 8
  store ptr %0, ptr %2, align 8, !tbaa !58
  ret void
}

; Function Attrs: nounwind uwtable
define void @EVP_RAND_free(ptr noundef %0) #0 {
  %2 = alloca ptr, align 8
  store ptr %0, ptr %2, align 8, !tbaa !29
  %3 = load ptr, ptr %2, align 8, !tbaa !29
  call void @evp_rand_free(ptr noundef %3)
  ret void
}

; Function Attrs: inlinehint nounwind uwtable
define internal i32 @CRYPTO_DOWN_REF(ptr noundef %0, ptr noundef %1) #3 {
  %3 = alloca ptr, align 8
  %4 = alloca ptr, align 8
  %5 = alloca i32, align 4
  %6 = alloca i32, align 4
  store ptr %0, ptr %3, align 8, !tbaa !58
  store ptr %1, ptr %4, align 8, !tbaa !61
  %7 = load ptr, ptr %3, align 8, !tbaa !58
  %8 = getelementptr inbounds nuw %struct.CRYPTO_REF_COUNT, ptr %7, i32 0, i32 0
  store i32 1, ptr %5, align 4, !tbaa !22
  %9 = load i32, ptr %5, align 4
  %10 = atomicrmw sub ptr %8, i32 %9 release, align 4
  store i32 %10, ptr %6, align 4
  %11 = load i32, ptr %6, align 4, !tbaa !22
  %12 = sub nsw i32 %11, 1
  %13 = load ptr, ptr %4, align 8, !tbaa !61
  store i32 %12, ptr %13, align 4, !tbaa !22
  %14 = load ptr, ptr %4, align 8, !tbaa !61
  %15 = load i32, ptr %14, align 4, !tbaa !22
  %16 = icmp eq i32 %15, 0
  br i1 %16, label %17, label %18

17:                                               ; preds = %2
  fence acquire
  br label %18

18:                                               ; preds = %17, %2
  ret i32 1
}

; Function Attrs: nounwind uwtable
define void @EVP_RAND_CTX_free(ptr noundef %0) #0 {
  %2 = alloca ptr, align 8
  %3 = alloca i32, align 4
  %4 = alloca ptr, align 8
  %5 = alloca i32, align 4
  store ptr %0, ptr %2, align 8, !tbaa !3
  call void @llvm.lifetime.start.p0(i64 4, ptr %3) #6
  store i32 0, ptr %3, align 4, !tbaa !22
  call void @llvm.lifetime.start.p0(i64 8, ptr %4) #6
  %6 = load ptr, ptr %2, align 8, !tbaa !3
  %7 = icmp eq ptr %6, null
  br i1 %7, label %8, label %9

8:                                                ; preds = %1
  store i32 1, ptr %5, align 4
  br label %37

9:                                                ; preds = %1
  %10 = load ptr, ptr %2, align 8, !tbaa !3
  %11 = getelementptr inbounds nuw %struct.evp_rand_ctx_st, ptr %10, i32 0, i32 3
  %12 = call i32 @CRYPTO_DOWN_REF(ptr noundef %11, ptr noundef %3)
  %13 = load i32, ptr %3, align 4, !tbaa !22
  %14 = icmp sgt i32 %13, 0
  br i1 %14, label %15, label %16

15:                                               ; preds = %9
  store i32 1, ptr %5, align 4
  br label %37

16:                                               ; preds = %9
  %17 = load ptr, ptr %2, align 8, !tbaa !3
  %18 = getelementptr inbounds nuw %struct.evp_rand_ctx_st, ptr %17, i32 0, i32 2
  %19 = load ptr, ptr %18, align 8, !tbaa !63
  store ptr %19, ptr %4, align 8, !tbaa !3
  %20 = load ptr, ptr %2, align 8, !tbaa !3
  %21 = getelementptr inbounds nuw %struct.evp_rand_ctx_st, ptr %20, i32 0, i32 0
  %22 = load ptr, ptr %21, align 8, !tbaa !8
  %23 = getelementptr inbounds nuw %struct.evp_rand_st, ptr %22, i32 0, i32 7
  %24 = load ptr, ptr %23, align 8, !tbaa !38
  %25 = load ptr, ptr %2, align 8, !tbaa !3
  %26 = getelementptr inbounds nuw %struct.evp_rand_ctx_st, ptr %25, i32 0, i32 1
  %27 = load ptr, ptr %26, align 8, !tbaa !18
  call void %24(ptr noundef %27)
  %28 = load ptr, ptr %2, align 8, !tbaa !3
  %29 = getelementptr inbounds nuw %struct.evp_rand_ctx_st, ptr %28, i32 0, i32 1
  store ptr null, ptr %29, align 8, !tbaa !18
  %30 = load ptr, ptr %2, align 8, !tbaa !3
  %31 = getelementptr inbounds nuw %struct.evp_rand_ctx_st, ptr %30, i32 0, i32 0
  %32 = load ptr, ptr %31, align 8, !tbaa !8
  call void @EVP_RAND_free(ptr noundef %32)
  %33 = load ptr, ptr %2, align 8, !tbaa !3
  %34 = getelementptr inbounds nuw %struct.evp_rand_ctx_st, ptr %33, i32 0, i32 3
  call void @CRYPTO_FREE_REF(ptr noundef %34)
  %35 = load ptr, ptr %2, align 8, !tbaa !3
  call void @CRYPTO_free(ptr noundef %35, ptr noundef @.str, i32 noundef 401)
  %36 = load ptr, ptr %4, align 8, !tbaa !3
  call void @EVP_RAND_CTX_free(ptr noundef %36)
  store i32 0, ptr %5, align 4
  br label %37

37:                                               ; preds = %16, %15, %8
  call void @llvm.lifetime.end.p0(i64 8, ptr %4) #6
  call void @llvm.lifetime.end.p0(i64 4, ptr %3) #6
  %38 = load i32, ptr %5, align 4
  switch i32 %38, label %40 [
    i32 0, label %39
    i32 1, label %39
  ]

39:                                               ; preds = %37, %37
  ret void

40:                                               ; preds = %37
  unreachable
}