; Function Attrs: nounwind uwtable
define void @EVP_RAND_CTX_free(ptr noundef %0) local_unnamed_addr #0 {
  %2 = icmp eq ptr %0, null
  br i1 %2, label %CRYPTO_DOWN_REF.exit._crit_edge, label %.lr.ph

.lr.ph:                                           ; preds = %1, %EVP_RAND_free.exit
  %.tr10 = phi ptr [ %9, %EVP_RAND_free.exit ], [ %0, %1 ]
  %3 = getelementptr inbounds nuw i8, ptr %.tr10, i64 24
  %4 = atomicrmw sub ptr %3, i32 1 release, align 4
  %5 = icmp eq i32 %4, 1
  br i1 %5, label %CRYPTO_DOWN_REF.exit.thread, label %CRYPTO_DOWN_REF.exit

CRYPTO_DOWN_REF.exit.thread:                      ; preds = %.lr.ph
  fence acquire
  br label %7

CRYPTO_DOWN_REF.exit:                             ; preds = %.lr.ph
  %6 = icmp sgt i32 %4, 1
  br i1 %6, label %CRYPTO_DOWN_REF.exit._crit_edge, label %7

7:                                                ; preds = %CRYPTO_DOWN_REF.exit.thread, %CRYPTO_DOWN_REF.exit
  %8 = getelementptr inbounds nuw i8, ptr %.tr10, i64 16
  %9 = load ptr, ptr %8, align 8, !tbaa !50
  %10 = load ptr, ptr %.tr10, align 8, !tbaa !3
  %11 = getelementptr inbounds nuw i8, ptr %10, i64 56
  %12 = load ptr, ptr %11, align 8, !tbaa !31
  %13 = getelementptr inbounds nuw i8, ptr %.tr10, i64 8
  %14 = load ptr, ptr %13, align 8, !tbaa !17
  tail call void %12(ptr noundef %14) #8
  store ptr null, ptr %13, align 8, !tbaa !17
  %15 = load ptr, ptr %.tr10, align 8, !tbaa !3
  %16 = icmp eq ptr %15, null
  br i1 %16, label %EVP_RAND_free.exit, label %17

17:                                               ; preds = %7
  %18 = getelementptr inbounds nuw i8, ptr %15, i64 32
  %19 = atomicrmw sub ptr %18, i32 1 release, align 4
  %20 = icmp eq i32 %19, 1
  br i1 %20, label %CRYPTO_DOWN_REF.exit.thread.i.i, label %CRYPTO_DOWN_REF.exit.i.i

CRYPTO_DOWN_REF.exit.thread.i.i:                  ; preds = %17
  fence acquire
  br label %22

CRYPTO_DOWN_REF.exit.i.i:                         ; preds = %17
  %21 = icmp sgt i32 %19, 1
  br i1 %21, label %EVP_RAND_free.exit, label %22

22:                                               ; preds = %CRYPTO_DOWN_REF.exit.i.i, %CRYPTO_DOWN_REF.exit.thread.i.i
  %23 = getelementptr inbounds nuw i8, ptr %15, i64 16
  %24 = load ptr, ptr %23, align 8, !tbaa !22
  tail call void @CRYPTO_free(ptr noundef %24, ptr noundef nonnull @.str, i32 noundef 73) #8
  %25 = load ptr, ptr %15, align 8, !tbaa !23
  tail call void @ossl_provider_free(ptr noundef %25) #8
  tail call void @CRYPTO_free(ptr noundef nonnull %15, ptr noundef nonnull @.str, i32 noundef 76) #8
  br label %EVP_RAND_free.exit

EVP_RAND_free.exit:                               ; preds = %7, %CRYPTO_DOWN_REF.exit.i.i, %22
  tail call void @CRYPTO_free(ptr noundef nonnull %.tr10, ptr noundef nonnull @.str, i32 noundef 401) #8
  %26 = icmp eq ptr %9, null
  br i1 %26, label %CRYPTO_DOWN_REF.exit._crit_edge, label %.lr.ph

CRYPTO_DOWN_REF.exit._crit_edge:                  ; preds = %EVP_RAND_free.exit, %CRYPTO_DOWN_REF.exit, %1
  ret void
}